target datalayout = "e-m:e-p270:32:32-p271:32:32-p272:64:64-i64:64-i128:128-f80:128-n8:16:32:64-S128"
target triple = "x86_64-pc-linux-gnu"

@.str = private unnamed_addr constant [16 x i8] c"pmix.host.attrs\00", align 1
@.str.1 = private unnamed_addr constant [18 x i8] c"pmix.client.attrs\00", align 1
@.str.2 = private unnamed_addr constant [16 x i8] c"pmix.srvr.attrs\00", align 1
@.str.3 = private unnamed_addr constant [16 x i8] c"pmix.tool.attrs\00", align 1
@.str.17 = private unnamed_addr constant [30 x i8] c"CLIENT SUPPORTED ATTRIBUTES: \00", align 1
@.str.18 = private unnamed_addr constant [30 x i8] c"SERVER SUPPORTED ATTRIBUTES: \00", align 1
@.str.19 = private unnamed_addr constant [28 x i8] c"HOST SUPPORTED ATTRIBUTES: \00", align 1
@.str.20 = private unnamed_addr constant [28 x i8] c"TOOL SUPPORTED ATTRIBUTES: \00", align 1
@.str.21 = private unnamed_addr constant [5 x i8] c"NAME\00", align 1
@.str.22 = private unnamed_addr constant [7 x i8] c"STRING\00", align 1
@.str.23 = private unnamed_addr constant [5 x i8] c"TYPE\00", align 1
@.str.24 = private unnamed_addr constant [12 x i8] c"DESCRIPTION\00", align 1

; Function Attrs: nounwind uwtable
define void @pmix_attributes_print_headers(ptr noundef %0, ptr noundef %1) #0 {
  %3 = alloca ptr, align 8
  %4 = alloca ptr, align 8
  %5 = alloca i64, align 8
  %6 = alloca i64, align 8
  %7 = alloca i64, align 8
  %8 = alloca ptr, align 8
  %9 = alloca ptr, align 8
  %10 = alloca ptr, align 8
  %11 = alloca ptr, align 8
  %12 = alloca [141 x i8], align 16
  %13 = alloca i32, align 4
  store ptr %0, ptr %3, align 8, !tbaa !204
  store ptr %1, ptr %4, align 8, !tbaa !68
  call void @llvm.lifetime.start.p0(i64 8, ptr %5) #13
  call void @llvm.lifetime.start.p0(i64 8, ptr %6) #13
  call void @llvm.lifetime.start.p0(i64 8, ptr %7) #13
  call void @llvm.lifetime.start.p0(i64 8, ptr %8) #13
  store ptr @.str.17, ptr %8, align 8, !tbaa !68
  call void @llvm.lifetime.start.p0(i64 8, ptr %9) #13
  store ptr @.str.18, ptr %9, align 8, !tbaa !68
  call void @llvm.lifetime.start.p0(i64 8, ptr %10) #13
  store ptr @.str.19, ptr %10, align 8, !tbaa !68
  call void @llvm.lifetime.start.p0(i64 8, ptr %11) #13
  store ptr @.str.20, ptr %11, align 8, !tbaa !68
  call void @llvm.lifetime.start.p0(i64 141, ptr %12) #13
  %14 = load ptr, ptr %4, align 8, !tbaa !68
  %15 = call i32 @strcmp(ptr noundef %14, ptr noundef @.str.1) #15
  %16 = icmp eq i32 0, %15
  br i1 %16, label %17, label %21

17:                                               ; preds = %2
  %18 = load ptr, ptr %3, align 8, !tbaa !204
  %19 = load ptr, ptr %8, align 8, !tbaa !68
  %20 = call i32 @PMIx_Argv_append_nosize(ptr noundef %18, ptr noundef %19)
  br label %49

21:                                               ; preds = %2
  %22 = load ptr, ptr %4, align 8, !tbaa !68
  %23 = call i32 @strcmp(ptr noundef %22, ptr noundef @.str.2) #15
  %24 = icmp eq i32 0, %23
  br i1 %24, label %25, label %29

25:                                               ; preds = %21
  %26 = load ptr, ptr %3, align 8, !tbaa !204
  %27 = load ptr, ptr %9, align 8, !tbaa !68
  %28 = call i32 @PMIx_Argv_append_nosize(ptr noundef %26, ptr noundef %27)
  br label %48

29:                                               ; preds = %21
  %30 = load ptr, ptr %4, align 8, !tbaa !68
  %31 = call i32 @strcmp(ptr noundef %30, ptr noundef @.str) #15
  %32 = icmp eq i32 0, %31
  br i1 %32, label %33, label %37

33:                                               ; preds = %29
  %34 = load ptr, ptr %3, align 8, !tbaa !204
  %35 = load ptr, ptr %10, align 8, !tbaa !68
  %36 = call i32 @PMIx_Argv_append_nosize(ptr noundef %34, ptr noundef %35)
  br label %47

37:                                               ; preds = %29
  %38 = load ptr, ptr %4, align 8, !tbaa !68
  %39 = call i32 @strcmp(ptr noundef %38, ptr noundef @.str.3) #15
  %40 = icmp eq i32 0, %39
  br i1 %40, label %41, label %45

41:                                               ; preds = %37
  %42 = load ptr, ptr %3, align 8, !tbaa !204
  %43 = load ptr, ptr %11, align 8, !tbaa !68
  %44 = call i32 @PMIx_Argv_append_nosize(ptr noundef %42, ptr noundef %43)
  br label %46

45:                                               ; preds = %37
  store i32 1, ptr %13, align 4
  br label %123

46:                                               ; preds = %41
  br label %47

47:                                               ; preds = %46, %33
  br label %48

48:                                               ; preds = %47, %25
  br label %49

49:                                               ; preds = %48, %17
  %50 = getelementptr inbounds [141 x i8], ptr %12, i64 0, i64 0
  call void @llvm.memset.p0.i64(ptr align 16 %50, i8 32, i64 141, i1 false)
  %51 = getelementptr inbounds [141 x i8], ptr %12, i64 0, i64 140
  store i8 0, ptr %51, align 4, !tbaa !102
  store i64 16, ptr %7, align 8, !tbaa !41
  %52 = load i64, ptr %7, align 8, !tbaa !41
  %53 = getelementptr inbounds nuw [141 x i8], ptr %12, i64 0, i64 %52
  call void @llvm.memcpy.p0.p0.i64(ptr align 1 %53, ptr align 1 @.str.21, i64 4, i1 false)
  store i64 48, ptr %7, align 8, !tbaa !41
  %54 = load i64, ptr %7, align 8, !tbaa !41
  %55 = getelementptr inbounds nuw [141 x i8], ptr %12, i64 0, i64 %54
  call void @llvm.memcpy.p0.p0.i64(ptr align 1 %55, ptr align 1 @.str.22, i64 6, i1 false)
  store i64 71, ptr %7, align 8, !tbaa !41
  %56 = load i64, ptr %7, align 8, !tbaa !41
  %57 = getelementptr inbounds nuw [141 x i8], ptr %12, i64 0, i64 %56
  call void @llvm.memcpy.p0.p0.i64(ptr align 1 %57, ptr align 1 @.str.23, i64 4, i1 false)
  store i64 102, ptr %7, align 8, !tbaa !41
  %58 = load i64, ptr %7, align 8, !tbaa !41
  %59 = getelementptr inbounds nuw [141 x i8], ptr %12, i64 0, i64 %58
  call void @llvm.memcpy.p0.p0.i64(ptr align 1 %59, ptr align 1 @.str.24, i64 11, i1 false)
  %60 = load i64, ptr %7, align 8, !tbaa !41
  %61 = add i64 %60, 12
  store i64 %61, ptr %7, align 8, !tbaa !41
  %62 = load i64, ptr %7, align 8, !tbaa !41
  %63 = getelementptr inbounds nuw [141 x i8], ptr %12, i64 0, i64 %62
  store i8 0, ptr %63, align 1, !tbaa !102
  %64 = load ptr, ptr %3, align 8, !tbaa !204
  %65 = getelementptr inbounds [141 x i8], ptr %12, i64 0, i64 0
  %66 = call i32 @PMIx_Argv_append_nosize(ptr noundef %64, ptr noundef %65)
  %67 = getelementptr inbounds [141 x i8], ptr %12, i64 0, i64 0
  call void @llvm.memset.p0.i64(ptr align 16 %67, i8 32, i64 141, i1 false)
  %68 = getelementptr inbounds [141 x i8], ptr %12, i64 0, i64 140
  store i8 0, ptr %68, align 4, !tbaa !102
  store i64 0, ptr %6, align 8, !tbaa !41
  store i64 0, ptr %5, align 8, !tbaa !41
  br label %69

69:                                               ; preds = %77, %49
  %70 = load i64, ptr %5, align 8, !tbaa !41
  %71 = icmp ult i64 %70, 35
  br i1 %71, label %72, label %80

72:                                               ; preds = %69
  %73 = load i64, ptr %6, align 8, !tbaa !41
  %74 = getelementptr inbounds nuw [141 x i8], ptr %12, i64 0, i64 %73
  store i8 45, ptr %74, align 1, !tbaa !102
  %75 = load i64, ptr %6, align 8, !tbaa !41
  %76 = add i64 %75, 1
  store i64 %76, ptr %6, align 8, !tbaa !41
  br label %77

77:                                               ; preds = %72
  %78 = load i64, ptr %5, align 8, !tbaa !41
  %79 = add i64 %78, 1
  store i64 %79, ptr %5, align 8, !tbaa !41
  br label %69, !llvm.loop !209

80:                                               ; preds = %69
  %81 = load i64, ptr %6, align 8, !tbaa !41
  %82 = add i64 %81, 2
  store i64 %82, ptr %6, align 8, !tbaa !41
  store i64 0, ptr %5, align 8, !tbaa !41
  br label %83

83:                                               ; preds = %91, %80
  %84 = load i64, ptr %5, align 8, !tbaa !41
  %85 = icmp ult i64 %84, 25
  br i1 %85, label %86, label %94

86:                                               ; preds = %83
  %87 = load i64, ptr %6, align 8, !tbaa !41
  %88 = getelementptr inbounds nuw [141 x i8], ptr %12, i64 0, i64 %87
  store i8 45, ptr %88, align 1, !tbaa !102
  %89 = load i64, ptr %6, align 8, !tbaa !41
  %90 = add i64 %89, 1
  store i64 %90, ptr %6, align 8, !tbaa !41
  br label %91

91:                                               ; preds = %86
  %92 = load i64, ptr %5, align 8, !tbaa !41
  %93 = add i64 %92, 1
  store i64 %93, ptr %5, align 8, !tbaa !41
  br label %83, !llvm.loop !210

94:                                               ; preds = %83
  %95 = load i64, ptr %6, align 8, !tbaa !41
  %96 = add i64 %95, 2
  store i64 %96, ptr %6, align 8, !tbaa !41
  store i64 0, ptr %5, align 8, !tbaa !41
  br label %97

97:                                               ; preds = %105, %94
  %98 = load i64, ptr %5, align 8, !tbaa !41
  %99 = icmp ult i64 %98, 20
  br i1 %99, label %100, label %108

100:                                              ; preds = %97
  %101 = load i64, ptr %6, align 8, !tbaa !41
  %102 = getelementptr inbounds nuw [141 x i8], ptr %12, i64 0, i64 %101
  store i8 45, ptr %102, align 1, !tbaa !102
  %103 = load i64, ptr %6, align 8, !tbaa !41
  %104 = add i64 %103, 1
  store i64 %104, ptr %6, align 8, !tbaa !41
  br label %105

105:                                              ; preds = %100
  %106 = load i64, ptr %5, align 8, !tbaa !41
  %107 = add i64 %106, 1
  store i64 %107, ptr %5, align 8, !tbaa !41
  br label %97, !llvm.loop !211

108:                                              ; preds = %97
  %109 = load i64, ptr %6, align 8, !tbaa !41
  %110 = add i64 %109, 2
  store i64 %110, ptr %6, align 8, !tbaa !41
  br label %111

111:                                              ; preds = %114, %108
  %112 = load i64, ptr %6, align 8, !tbaa !41
  %113 = icmp ult i64 %112, 140
  br i1 %113, label %114, label %119

114:                                              ; preds = %111
  %115 = load i64, ptr %6, align 8, !tbaa !41
  %116 = getelementptr inbounds nuw [141 x i8], ptr %12, i64 0, i64 %115
  store i8 45, ptr %116, align 1, !tbaa !102
  %117 = load i64, ptr %6, align 8, !tbaa !41
  %118 = add i64 %117, 1
  store i64 %118, ptr %6, align 8, !tbaa !41
  br label %111, !llvm.loop !212

119:                                              ; preds = %111
  %120 = load ptr, ptr %3, align 8, !tbaa !204
  %121 = getelementptr inbounds [141 x i8], ptr %12, i64 0, i64 0
  %122 = call i32 @PMIx_Argv_append_nosize(ptr noundef %120, ptr noundef %121)
  store i32 0, ptr %13, align 4
  br label %123

123:                                              ; preds = %119, %45
  call void @llvm.lifetime.end.p0(i64 141, ptr %12) #13
  call void @llvm.lifetime.end.p0(i64 8, ptr %11) #13
  call void @llvm.lifetime.end.p0(i64 8, ptr %10) #13
  call void @llvm.lifetime.end.p0(i64 8, ptr %9) #13
  call void @llvm.lifetime.end.p0(i64 8, ptr %8) #13
  call void @llvm.lifetime.end.p0(i64 8, ptr %7) #13
  call void @llvm.lifetime.end.p0(i64 8, ptr %6) #13
  call void @llvm.lifetime.end.p0(i64 8, ptr %5) #13
  %124 = load i32, ptr %13, align 4
  switch i32 %124, label %126 [
    i32 0, label %125
    i32 1, label %125
  ]

125:                                              ; preds = %123, %123
  ret void

126:                                              ; preds = %123
  unreachable
}