; Function Attrs: nounwind uwtable
define void @pmix_attributes_print_headers(ptr noundef %0, ptr noundef readonly captures(none) %1) local_unnamed_addr #0 {
  %3 = alloca [141 x i8], align 16
  call void @llvm.lifetime.start.p0(i64 141, ptr nonnull %3) #18
  %4 = tail call i32 @strcmp(ptr noundef nonnull dereferenceable(1) %1, ptr noundef nonnull dereferenceable(18) @.str.1) #20
  %5 = icmp eq i32 %4, 0
  br i1 %5, label %._crit_edge, label %6

6:                                                ; preds = %2
  %7 = tail call i32 @strcmp(ptr noundef nonnull dereferenceable(1) %1, ptr noundef nonnull dereferenceable(16) @.str.2) #20
  %8 = icmp eq i32 %7, 0
  br i1 %8, label %._crit_edge, label %9

9:                                                ; preds = %6
  %10 = tail call i32 @strcmp(ptr noundef nonnull dereferenceable(1) %1, ptr noundef nonnull dereferenceable(16) @.str) #20
  %11 = icmp eq i32 %10, 0
  br i1 %11, label %._crit_edge, label %12

12:                                               ; preds = %9
  %13 = tail call i32 @strcmp(ptr noundef nonnull dereferenceable(1) %1, ptr noundef nonnull dereferenceable(16) @.str.3) #20
  %14 = icmp eq i32 %13, 0
  br i1 %14, label %._crit_edge, label %25

._crit_edge:                                      ; preds = %12, %9, %6, %2
  %.str.18.sink = phi ptr [ @.str.17, %2 ], [ @.str.18, %6 ], [ @.str.19, %9 ], [ @.str.20, %12 ]
  %15 = tail call i32 @PMIx_Argv_append_nosize(ptr noundef %0, ptr noundef nonnull %.str.18.sink) #18
  call void @llvm.memset.p0.i64(ptr noundef nonnull align 16 dereferenceable(141) %3, i8 32, i64 141, i1 false)
  %16 = getelementptr inbounds nuw i8, ptr %3, i64 140
  store i8 0, ptr %16, align 4, !tbaa !80
  %17 = getelementptr inbounds nuw i8, ptr %3, i64 16
  store i32 1162690894, ptr %17, align 16
  %18 = getelementptr inbounds nuw i8, ptr %3, i64 48
  call void @llvm.memcpy.p0.p0.i64(ptr noundef nonnull align 16 dereferenceable(6) %18, ptr noundef nonnull align 1 dereferenceable(6) @.str.22, i64 6, i1 false)
  %19 = getelementptr inbounds nuw i8, ptr %3, i64 71
  store i32 1162893652, ptr %19, align 1
  %20 = getelementptr inbounds nuw i8, ptr %3, i64 102
  call void @llvm.memcpy.p0.p0.i64(ptr noundef nonnull align 2 dereferenceable(11) %20, ptr noundef nonnull align 1 dereferenceable(11) @.str.24, i64 11, i1 false)
  %21 = getelementptr inbounds nuw i8, ptr %3, i64 114
  store i8 0, ptr %21, align 2, !tbaa !80
  %22 = call i32 @PMIx_Argv_append_nosize(ptr noundef %0, ptr noundef nonnull %3) #18
  %23 = getelementptr inbounds nuw i8, ptr %3, i64 32
  call void @llvm.memset.p0.i64(ptr noundef nonnull align 16 dereferenceable(141) %23, i8 32, i64 64, i1 false)
  store i8 0, ptr %16, align 4, !tbaa !80
  call void @llvm.memset.p0.i64(ptr noundef nonnull align 16 dereferenceable(35) %3, i8 45, i64 35, i1 false), !tbaa !80
  %scevgep = getelementptr inbounds nuw i8, ptr %3, i64 37
  call void @llvm.memset.p0.i64(ptr noundef nonnull align 1 dereferenceable(25) %scevgep, i8 45, i64 25, i1 false), !tbaa !80
  %scevgep47 = getelementptr inbounds nuw i8, ptr %3, i64 64
  call void @llvm.memset.p0.i64(ptr noundef nonnull align 16 dereferenceable(20) %scevgep47, i8 45, i64 20, i1 false), !tbaa !80
  %scevgep48 = getelementptr inbounds nuw i8, ptr %3, i64 86
  call void @llvm.memset.p0.i64(ptr noundef nonnull align 2 dereferenceable(54) %scevgep48, i8 45, i64 54, i1 false), !tbaa !80
  %24 = call i32 @PMIx_Argv_append_nosize(ptr noundef %0, ptr noundef nonnull %3) #18
  br label %25

25:                                               ; preds = %12, %._crit_edge
  call void @llvm.lifetime.end.p0(i64 141, ptr nonnull %3) #18
  ret void
}